target datalayout = "e-m:e-p270:32:32-p271:32:32-p272:64:64-i64:64-i128:128-f80:128-n8:16:32:64-S128"
target triple = "x86_64-pc-linux-gnu"

%struct.AVFilterContext = type { ptr, ptr, ptr, ptr, ptr, i32, ptr, ptr, i32, ptr, ptr, i32, i32, ptr, ptr, ptr, ptr, i32, ptr, i32, i32 }
%struct.ATADenoiseContext = type { ptr, [4 x float], [4 x float], [4 x float], [4 x i32], [4 x i32], i32, i32, i32, [4 x i32], [4 x i32], [4 x i32], %struct.FFBufQueue, [4 x [129 x ptr]], [4 x [129 x i32]], [4 x [129 x float]], i32, i32, i32, i32, ptr, %struct.ATADenoiseDSPContext }
%struct.FFBufQueue = type { [129 x ptr], i16, i16 }
%struct.ATADenoiseDSPContext = type { [4 x ptr] }
%struct.AVFilterLink = type { ptr, ptr, ptr, ptr, i32, i32, i32, i32, %struct.AVRational, i32, i32, i32, %struct.AVChannelLayout, %struct.AVRational, ptr, i32, %struct.AVFilterFormatsConfig, %struct.AVFilterFormatsConfig }
%struct.AVChannelLayout = type { i32, i32, %union.anon.1, ptr }
%union.anon.1 = type { i64 }
%struct.AVRational = type { i32, i32 }
%struct.AVFilterFormatsConfig = type { ptr, ptr, ptr, ptr, ptr }

; Function Attrs: inlinehint nounwind uwtable
define internal ptr @ff_bufqueue_peek(ptr noundef %0, i32 noundef %1) #4 {
  %3 = alloca ptr, align 8
  %4 = alloca i32, align 4
  store ptr %0, ptr %3, align 8, !tbaa !77
  store i32 %1, ptr %4, align 4, !tbaa !32
  %5 = load i32, ptr %4, align 4, !tbaa !32
  %6 = load ptr, ptr %3, align 8, !tbaa !77
  %7 = getelementptr inbounds nuw %struct.FFBufQueue, ptr %6, i32 0, i32 2
  %8 = load i16, ptr %7, align 2, !tbaa !80
  %9 = zext i16 %8 to i32
  %10 = icmp ult i32 %5, %9
  br i1 %10, label %11, label %24

11:                                               ; preds = %2
  %12 = load ptr, ptr %3, align 8, !tbaa !77
  %13 = getelementptr inbounds nuw %struct.FFBufQueue, ptr %12, i32 0, i32 0
  %14 = load ptr, ptr %3, align 8, !tbaa !77
  %15 = getelementptr inbounds nuw %struct.FFBufQueue, ptr %14, i32 0, i32 1
  %16 = load i16, ptr %15, align 8, !tbaa !79
  %17 = zext i16 %16 to i32
  %18 = load i32, ptr %4, align 4, !tbaa !32
  %19 = add i32 %17, %18
  %20 = urem i32 %19, 129
  %21 = zext i32 %20 to i64
  %22 = getelementptr inbounds nuw [129 x ptr], ptr %13, i64 0, i64 %21
  %23 = load ptr, ptr %22, align 8, !tbaa !36
  br label %25

24:                                               ; preds = %2
  br label %25

25:                                               ; preds = %24, %11
  %26 = phi ptr [ %23, %11 ], [ null, %24 ]
  ret ptr %26
}

; Function Attrs: nounwind uwtable
define internal i32 @request_frame(ptr noundef %0) #1 {
  %2 = alloca i32, align 4
  %3 = alloca ptr, align 8
  %4 = alloca ptr, align 8
  %5 = alloca ptr, align 8
  %6 = alloca i32, align 4
  %7 = alloca ptr, align 8
  %8 = alloca i32, align 4
  store ptr %0, ptr %3, align 8, !tbaa !34
  call void @llvm.lifetime.start.p0(i64 8, ptr %4) #9
  %9 = load ptr, ptr %3, align 8, !tbaa !34
  %10 = getelementptr inbounds nuw %struct.AVFilterLink, ptr %9, i32 0, i32 0
  %11 = load ptr, ptr %10, align 8, !tbaa !120
  store ptr %11, ptr %4, align 8, !tbaa !4
  call void @llvm.lifetime.start.p0(i64 8, ptr %5) #9
  %12 = load ptr, ptr %4, align 8, !tbaa !4
  %13 = getelementptr inbounds nuw %struct.AVFilterContext, ptr %12, i32 0, i32 9
  %14 = load ptr, ptr %13, align 8, !tbaa !9
  store ptr %14, ptr %5, align 8, !tbaa !22
  call void @llvm.lifetime.start.p0(i64 4, ptr %6) #9
  store i32 0, ptr %6, align 4, !tbaa !32
  %15 = load ptr, ptr %4, align 8, !tbaa !4
  %16 = getelementptr inbounds nuw %struct.AVFilterContext, ptr %15, i32 0, i32 4
  %17 = load ptr, ptr %16, align 8, !tbaa !33
  %18 = getelementptr inbounds ptr, ptr %17, i64 0
  %19 = load ptr, ptr %18, align 8, !tbaa !34
  %20 = call i32 @ff_request_frame(ptr noundef %19)
  store i32 %20, ptr %6, align 4, !tbaa !32
  %21 = load i32, ptr %6, align 4, !tbaa !32
  %22 = icmp eq i32 %21, -541478725
  br i1 %22, label %23, label %59

23:                                               ; preds = %1
  %24 = load ptr, ptr %4, align 8, !tbaa !4
  %25 = getelementptr inbounds nuw %struct.AVFilterContext, ptr %24, i32 0, i32 17
  %26 = load i32, ptr %25, align 8, !tbaa !51
  %27 = icmp ne i32 %26, 0
  br i1 %27, label %59, label %28

28:                                               ; preds = %23
  %29 = load ptr, ptr %5, align 8, !tbaa !22
  %30 = getelementptr inbounds nuw %struct.ATADenoiseContext, ptr %29, i32 0, i32 19
  %31 = load i32, ptr %30, align 4, !tbaa !50
  %32 = icmp ne i32 %31, 0
  br i1 %32, label %33, label %59

33:                                               ; preds = %28
  call void @llvm.lifetime.start.p0(i64 8, ptr %7) #9
  %34 = load ptr, ptr %5, align 8, !tbaa !22
  %35 = getelementptr inbounds nuw %struct.ATADenoiseContext, ptr %34, i32 0, i32 12
  %36 = load ptr, ptr %5, align 8, !tbaa !22
  %37 = getelementptr inbounds nuw %struct.ATADenoiseContext, ptr %36, i32 0, i32 19
  %38 = load i32, ptr %37, align 4, !tbaa !50
  %39 = call ptr @ff_bufqueue_peek(ptr noundef %35, i32 noundef %38)
  %40 = call ptr @av_frame_clone(ptr noundef %39)
  store ptr %40, ptr %7, align 8, !tbaa !36
  %41 = load ptr, ptr %7, align 8, !tbaa !36
  %42 = icmp ne ptr %41, null
  br i1 %42, label %44, label %43

43:                                               ; preds = %33
  store i32 -12, ptr %2, align 4
  store i32 1, ptr %8, align 4
  br label %56

44:                                               ; preds = %33
  %45 = load ptr, ptr %4, align 8, !tbaa !4
  %46 = getelementptr inbounds nuw %struct.AVFilterContext, ptr %45, i32 0, i32 4
  %47 = load ptr, ptr %46, align 8, !tbaa !33
  %48 = getelementptr inbounds ptr, ptr %47, i64 0
  %49 = load ptr, ptr %48, align 8, !tbaa !34
  %50 = load ptr, ptr %7, align 8, !tbaa !36
  %51 = call i32 @filter_frame(ptr noundef %49, ptr noundef %50)
  store i32 %51, ptr %6, align 4, !tbaa !32
  %52 = load ptr, ptr %5, align 8, !tbaa !22
  %53 = getelementptr inbounds nuw %struct.ATADenoiseContext, ptr %52, i32 0, i32 19
  %54 = load i32, ptr %53, align 4, !tbaa !50
  %55 = add nsw i32 %54, -1
  store i32 %55, ptr %53, align 4, !tbaa !50
  store i32 0, ptr %8, align 4
  br label %56

56:                                               ; preds = %44, %43
  call void @llvm.lifetime.end.p0(i64 8, ptr %7) #9
  %57 = load i32, ptr %8, align 4
  switch i32 %57, label %61 [
    i32 0, label %58
  ]

58:                                               ; preds = %56
  br label %59

59:                                               ; preds = %58, %28, %23, %1
  %60 = load i32, ptr %6, align 4, !tbaa !32
  store i32 %60, ptr %2, align 4
  store i32 1, ptr %8, align 4
  br label %61

61:                                               ; preds = %59, %56
  call void @llvm.lifetime.end.p0(i64 4, ptr %6) #9
  call void @llvm.lifetime.end.p0(i64 8, ptr %5) #9
  call void @llvm.lifetime.end.p0(i64 8, ptr %4) #9
  %62 = load i32, ptr %2, align 4
  ret i32 %62
}