; Function Attrs: nounwind uwtable
define internal i32 @request_frame(ptr noundef readonly captures(none) %0) #1 {
  %2 = load ptr, ptr %0, align 8, !tbaa !104
  %3 = getelementptr inbounds nuw i8, ptr %2, i64 72
  %4 = load ptr, ptr %3, align 8, !tbaa !4
  %5 = getelementptr inbounds nuw i8, ptr %2, i64 32
  %6 = load ptr, ptr %5, align 8, !tbaa !33
  %7 = load ptr, ptr %6, align 8, !tbaa !34
  %8 = tail call i32 @ff_request_frame(ptr noundef %7) #10
  %9 = icmp eq i32 %8, -541478725
  br i1 %9, label %10, label %39

10:                                               ; preds = %1
  %11 = getelementptr inbounds nuw i8, ptr %2, i64 128
  %12 = load i32, ptr %11, align 8, !tbaa !49
  %.not = icmp eq i32 %12, 0
  br i1 %.not, label %13, label %39

13:                                               ; preds = %10
  %14 = getelementptr inbounds nuw i8, ptr %4, i64 9460
  %15 = load i32, ptr %14, align 4, !tbaa !48
  %.not21 = icmp eq i32 %15, 0
  br i1 %.not21, label %39, label %16

16:                                               ; preds = %13
  %17 = getelementptr inbounds nuw i8, ptr %4, i64 1186
  %18 = load i16, ptr %17, align 2, !tbaa !27
  %19 = zext i16 %18 to i32
  %20 = icmp ult i32 %15, %19
  br i1 %20, label %21, label %ff_bufqueue_peek.exit

21:                                               ; preds = %16
  %22 = getelementptr inbounds nuw i8, ptr %4, i64 152
  %23 = getelementptr inbounds nuw i8, ptr %4, i64 1184
  %24 = load i16, ptr %23, align 8, !tbaa !28
  %25 = zext i16 %24 to i32
  %26 = add nuw nsw i32 %15, %25
  %27 = urem i32 %26, 129
  %28 = zext nneg i32 %27 to i64
  %29 = getelementptr inbounds nuw [129 x ptr], ptr %22, i64 0, i64 %28
  %30 = load ptr, ptr %29, align 8, !tbaa !29
  br label %ff_bufqueue_peek.exit

ff_bufqueue_peek.exit:                            ; preds = %16, %21
  %31 = phi ptr [ %30, %21 ], [ null, %16 ]
  %32 = tail call ptr @av_frame_clone(ptr noundef %31) #10
  %.not22.not = icmp eq ptr %32, null
  br i1 %.not22.not, label %39, label %33

33:                                               ; preds = %ff_bufqueue_peek.exit
  %34 = load ptr, ptr %5, align 8, !tbaa !33
  %35 = load ptr, ptr %34, align 8, !tbaa !34
  %36 = tail call i32 @filter_frame(ptr noundef %35, ptr noundef nonnull %32)
  %37 = load i32, ptr %14, align 4, !tbaa !48
  %38 = add nsw i32 %37, -1
  store i32 %38, ptr %14, align 4, !tbaa !48
  br label %39

39:                                               ; preds = %33, %ff_bufqueue_peek.exit, %1, %10, %13
  %.1 = phi i32 [ -541478725, %10 ], [ -541478725, %13 ], [ %8, %1 ], [ %36, %33 ], [ -12, %ff_bufqueue_peek.exit ]
  ret i32 %.1
}